; Function Attrs: nounwind uwtable
define ptr @l_Lean_Meta_reducePow(ptr noundef %0, ptr noundef %1, ptr noundef %2, ptr noundef %3, ptr noundef %4, ptr noundef %5, ptr noundef %6) local_unnamed_addr #1 {
  %8 = tail call zeroext i8 @l_Lean_Expr_hasExprMVar(ptr noundef %0) #5
  %9 = icmp eq i8 %8, 0
  br i1 %9, label %10, label %76

10:                                               ; preds = %7
  %11 = tail call zeroext i8 @l_Lean_Expr_hasFVar(ptr noundef %0) #5
  %12 = icmp eq i8 %11, 0
  br i1 %12, label %13, label %15

13:                                               ; preds = %10
  %14 = tail call ptr @l_Lean_Meta_reducePow___lambda__10(ptr noundef %0, ptr noundef %1, ptr nonnull poison, ptr noundef %2, ptr noundef %3, ptr noundef %4, ptr noundef %5, ptr noundef %6)
  br label %78

15:                                               ; preds = %10
  %16 = ptrtoint ptr %5 to i64
  %17 = and i64 %16, 1
  %.not = icmp eq i64 %17, 0
  br i1 %.not, label %18, label %lean_dec.exit37

18:                                               ; preds = %15
  %19 = load i32, ptr %5, align 4, !tbaa !4
  %20 = icmp sgt i32 %19, 1
  br i1 %20, label %21, label %23, !prof !11

21:                                               ; preds = %18
  %22 = add nsw i32 %19, -1
  store i32 %22, ptr %5, align 4, !tbaa !4
  br label %lean_dec.exit37

23:                                               ; preds = %18
  %.not.i = icmp eq i32 %19, 0
  br i1 %.not.i, label %lean_dec.exit37, label %24

24:                                               ; preds = %23
  tail call void @lean_dec_ref_cold(ptr noundef nonnull %5) #5
  br label %lean_dec.exit37

lean_dec.exit37:                                  ; preds = %24, %23, %21, %15
  %25 = ptrtoint ptr %4 to i64
  %26 = and i64 %25, 1
  %.not48 = icmp eq i64 %26, 0
  br i1 %.not48, label %27, label %lean_dec.exit36

27:                                               ; preds = %lean_dec.exit37
  %28 = load i32, ptr %4, align 4, !tbaa !4
  %29 = icmp sgt i32 %28, 1
  br i1 %29, label %30, label %32, !prof !11

30:                                               ; preds = %27
  %31 = add nsw i32 %28, -1
  store i32 %31, ptr %4, align 4, !tbaa !4
  br label %lean_dec.exit36

32:                                               ; preds = %27
  %.not.i38 = icmp eq i32 %28, 0
  br i1 %.not.i38, label %lean_dec.exit36, label %33

33:                                               ; preds = %32
  tail call void @lean_dec_ref_cold(ptr noundef nonnull %4) #5
  br label %lean_dec.exit36

lean_dec.exit36:                                  ; preds = %33, %32, %30, %lean_dec.exit37
  %34 = ptrtoint ptr %3 to i64
  %35 = and i64 %34, 1
  %.not49 = icmp eq i64 %35, 0
  br i1 %.not49, label %36, label %lean_dec.exit35

36:                                               ; preds = %lean_dec.exit36
  %37 = load i32, ptr %3, align 4, !tbaa !4
  %38 = icmp sgt i32 %37, 1
  br i1 %38, label %39, label %41, !prof !11

39:                                               ; preds = %36
  %40 = add nsw i32 %37, -1
  store i32 %40, ptr %3, align 4, !tbaa !4
  br label %lean_dec.exit35

41:                                               ; preds = %36
  %.not.i40 = icmp eq i32 %37, 0
  br i1 %.not.i40, label %lean_dec.exit35, label %42

42:                                               ; preds = %41
  tail call void @lean_dec_ref_cold(ptr noundef nonnull %3) #5
  br label %lean_dec.exit35

lean_dec.exit35:                                  ; preds = %42, %41, %39, %lean_dec.exit36
  %43 = ptrtoint ptr %2 to i64
  %44 = and i64 %43, 1
  %.not50 = icmp eq i64 %44, 0
  br i1 %.not50, label %45, label %lean_dec.exit34

45:                                               ; preds = %lean_dec.exit35
  %46 = load i32, ptr %2, align 4, !tbaa !4
  %47 = icmp sgt i32 %46, 1
  br i1 %47, label %48, label %50, !prof !11

48:                                               ; preds = %45
  %49 = add nsw i32 %46, -1
  store i32 %49, ptr %2, align 4, !tbaa !4
  br label %lean_dec.exit34

50:                                               ; preds = %45
  %.not.i42 = icmp eq i32 %46, 0
  br i1 %.not.i42, label %lean_dec.exit34, label %51

51:                                               ; preds = %50
  tail call void @lean_dec_ref_cold(ptr noundef nonnull %2) #5
  br label %lean_dec.exit34

lean_dec.exit34:                                  ; preds = %51, %50, %48, %lean_dec.exit35
  %52 = ptrtoint ptr %1 to i64
  %53 = and i64 %52, 1
  %.not51 = icmp eq i64 %53, 0
  br i1 %.not51, label %54, label %lean_dec.exit33

54:                                               ; preds = %lean_dec.exit34
  %55 = load i32, ptr %1, align 4, !tbaa !4
  %56 = icmp sgt i32 %55, 1
  br i1 %56, label %57, label %59, !prof !11

57:                                               ; preds = %54
  %58 = add nsw i32 %55, -1
  store i32 %58, ptr %1, align 4, !tbaa !4
  br label %lean_dec.exit33

59:                                               ; preds = %54
  %.not.i44 = icmp eq i32 %55, 0
  br i1 %.not.i44, label %lean_dec.exit33, label %60

60:                                               ; preds = %59
  tail call void @lean_dec_ref_cold(ptr noundef nonnull %1) #5
  br label %lean_dec.exit33

lean_dec.exit33:                                  ; preds = %60, %59, %57, %lean_dec.exit34
  %61 = ptrtoint ptr %0 to i64
  %62 = and i64 %61, 1
  %.not52 = icmp eq i64 %62, 0
  br i1 %.not52, label %63, label %lean_dec.exit

63:                                               ; preds = %lean_dec.exit33
  %64 = load i32, ptr %0, align 4, !tbaa !4
  %65 = icmp sgt i32 %64, 1
  br i1 %65, label %66, label %68, !prof !11

66:                                               ; preds = %63
  %67 = add nsw i32 %64, -1
  store i32 %67, ptr %0, align 4, !tbaa !4
  br label %lean_dec.exit

68:                                               ; preds = %63
  %.not.i46 = icmp eq i32 %64, 0
  br i1 %.not.i46, label %lean_dec.exit, label %69

69:                                               ; preds = %68
  tail call void @lean_dec_ref_cold(ptr noundef nonnull %0) #5
  br label %lean_dec.exit

lean_dec.exit:                                    ; preds = %69, %68, %66, %lean_dec.exit33
  tail call void @lean_inc_heartbeat() #5
  %70 = tail call noalias ptr @mi_malloc_small(i64 noundef 24) #5
  %71 = icmp eq ptr %70, null
  br i1 %71, label %72, label %lean_alloc_ctor.exit

72:                                               ; preds = %lean_dec.exit
  tail call void @lean_internal_panic_out_of_memory() #4
  unreachable

lean_alloc_ctor.exit:                             ; preds = %lean_dec.exit
  %73 = getelementptr inbounds nuw i8, ptr %70, i64 4
  store i32 1, ptr %70, align 4, !tbaa !4
  store i32 131096, ptr %73, align 4
  %74 = getelementptr inbounds nuw i8, ptr %70, i64 8
  store ptr inttoptr (i64 1 to ptr), ptr %74, align 8, !tbaa !12
  %75 = getelementptr inbounds nuw i8, ptr %70, i64 16
  store ptr %6, ptr %75, align 8, !tbaa !12
  br label %78

76:                                               ; preds = %7
  %77 = tail call ptr @l_Lean_Meta_reducePow___lambda__10(ptr noundef %0, ptr noundef %1, ptr nonnull poison, ptr noundef %2, ptr noundef %3, ptr noundef %4, ptr noundef %5, ptr noundef %6)
  br label %78

78:                                               ; preds = %13, %lean_alloc_ctor.exit, %76
  %.1 = phi ptr [ %77, %76 ], [ %14, %13 ], [ %70, %lean_alloc_ctor.exit ]
  ret ptr %.1
}